---
triple:          'arm64-apple-darwin'
binary-path:     a.out
relocations:
  - { offsetInCU: 0x49, offset: 0x49, size: 0x8, addend: 0x0, symName: __ZNSt3__119piecewise_constructE, symObjAddr: 0x10BC, symBinAddr: 0x100003EA4, symSize: 0x0 }
  - { offsetInCU: 0x50D7, offset: 0x50D7, size: 0x8, addend: 0x0, symName: __ZNSt3__14endlB8ue170006IcNS_11char_traitsIcEEEERNS_13basic_ostreamIT_T0_EES7_, symObjAddr: 0x324, symBinAddr: 0x100002FEC, symSize: 0x58 }
  - { offsetInCU: 0x5117, offset: 0x5117, size: 0x8, addend: 0x0, symName: __ZNSt3__110make_tupleB8ue170006IJRKiEEENS_5tupleIJDpNS_18__unwrap_ref_decayIT_E4typeEEEEDpOS5_, symObjAddr: 0x4AC, symBinAddr: 0x100003174, symSize: 0x2C }
  - { offsetInCU: 0x5150, offset: 0x5150, size: 0x8, addend: 0x0, symName: __ZNSt3__110make_tupleB8ue170006IJiEEENS_5tupleIJDpNS_18__unwrap_ref_decayIT_E4typeEEEEDpOS3_, symObjAddr: 0x4D8, symBinAddr: 0x1000031A0, symSize: 0x2C }
  - { offsetInCU: 0x5215, offset: 0x5215, size: 0x8, addend: 0x0, symName: __ZNSt3__117__libcpp_allocateB8ue170006Emm, symObjAddr: 0x780, symBinAddr: 0x100003448, symSize: 0x60 }
  - { offsetInCU: 0x545B, offset: 0x545B, size: 0x8, addend: 0x0, symName: __ZNSt3__124__is_overaligned_for_newB8ue170006Em, symObjAddr: 0x7FC, symBinAddr: 0x1000034C4, symSize: 0x20 }
  - { offsetInCU: 0x5489, offset: 0x5489, size: 0x8, addend: 0x0, symName: __ZNSt3__121__libcpp_operator_newB8ue170006IJmSt11align_val_tEEEPvDpT_, symObjAddr: 0x81C, symBinAddr: 0x1000034E4, symSize: 0x2C }
  - { offsetInCU: 0x54D6, offset: 0x54D6, size: 0x8, addend: 0x0, symName: __ZNSt3__121__libcpp_operator_newB8ue170006IJmEEEPvDpT_, symObjAddr: 0x848, symBinAddr: 0x100003510, symSize: 0x24 }
  - { offsetInCU: 0x553E, offset: 0x553E, size: 0x8, addend: 0x0, symName: __ZNSt3__13getB8ue170006ILm0EJiEEERNS_13tuple_elementIXT_ENS_5tupleIJDpT0_EEEE4typeERS5_, symObjAddr: 0xAF4, symBinAddr: 0x1000037BC, symSize: 0x24 }
  - { offsetInCU: 0x5581, offset: 0x5581, size: 0x8, addend: 0x0, symName: __ZNSt3__110make_tupleB8ue170006IJRiEEENS_5tupleIJDpNS_18__unwrap_ref_decayIT_E4typeEEEEDpOS4_, symObjAddr: 0xC6C, symBinAddr: 0x100003934, symSize: 0x2C }
  - { offsetInCU: 0x55BA, offset: 0x55BA, size: 0x8, addend: 0x0, symName: __ZNSt3__110make_tupleB8ue170006IJEEENS_5tupleIJDpNS_18__unwrap_ref_decayIT_E4typeEEEEDpOS3_, symObjAddr: 0xE90, symBinAddr: 0x100003B58, symSize: 0x4 }
  - { offsetInCU: 0x5615, offset: 0x5615, size: 0x8, addend: 0x0, symName: __ZNSt3__19use_facetB8ue170006INS_5ctypeIcEEEERKT_RKNS_6localeE, symObjAddr: 0xFE0, symBinAddr: 0x100003CA8, symSize: 0x2C }
  - { offsetInCU: 0x5B8C, offset: 0x5B8C, size: 0x8, addend: 0x0, symName: __ZSt28__throw_bad_array_new_lengthB8ue170006v, symObjAddr: 0x74C, symBinAddr: 0x100003414, symSize: 0x34 }
  - { offsetInCU: 0x8192, offset: 0x8192, size: 0x8, addend: 0x0, symName: _main, symObjAddr: 0x0, symBinAddr: 0x100002CC8, symSize: 0xC4 }
  - { offsetInCU: 0x83EE, offset: 0x83EE, size: 0x8, addend: 0x0, symName: __ZN9c_hashmapIiiNSt3__14hashIiEENS0_8equal_toIiEENS0_9allocatorINS0_4pairIKiiEEEEEC1Ev, symObjAddr: 0xC4, symBinAddr: 0x100002D8C, symSize: 0x2C }
  - { offsetInCU: 0x841A, offset: 0x841A, size: 0x8, addend: 0x0, symName: __ZN9c_hashmapIiiNSt3__14hashIiEENS0_8equal_toIiEENS0_9allocatorINS0_4pairIKiiEEEEE7emplaceIJiEEEviDpOT_, symObjAddr: 0xF0, symBinAddr: 0x100002DB8, symSize: 0x11C }
  - { offsetInCU: 0x8494, offset: 0x8494, size: 0x8, addend: 0x0, symName: __ZN9c_hashmapIiiNSt3__14hashIiEENS0_8equal_toIiEENS0_9allocatorINS0_4pairIKiiEEEEE6insertEiOi, symObjAddr: 0x20C, symBinAddr: 0x100002ED4, symSize: 0x78 }
  - { offsetInCU: 0x84E5, offset: 0x84E5, size: 0x8, addend: 0x0, symName: __ZN9c_hashmapIiiNSt3__14hashIiEENS0_8equal_toIiEENS0_9allocatorINS0_4pairIKiiEEEEEixEi, symObjAddr: 0x284, symBinAddr: 0x100002F4C, symSize: 0x74 }
  - { offsetInCU: 0x85D5, offset: 0x85D5, size: 0x8, addend: 0x0, symName: __ZNSt3__113basic_ostreamIcNS_11char_traitsIcEEElsB8ue170006EPFRS3_S4_E, symObjAddr: 0x2F8, symBinAddr: 0x100002FC0, symSize: 0x2C }
  - { offsetInCU: 0x8609, offset: 0x8609, size: 0x8, addend: 0x0, symName: __ZN9c_hashmapIiiNSt3__14hashIiEENS0_8equal_toIiEENS0_9allocatorINS0_4pairIKiiEEEEEC2Ev, symObjAddr: 0x37C, symBinAddr: 0x100003044, symSize: 0x34 }
  - { offsetInCU: 0x8635, offset: 0x8635, size: 0x8, addend: 0x0, symName: __ZNSt3__19allocatorINS_4pairIKiiEEEC1B8ue170006Ev, symObjAddr: 0x3B0, symBinAddr: 0x100003078, symSize: 0x2C }
  - { offsetInCU: 0x865F, offset: 0x865F, size: 0x8, addend: 0x0, symName: __ZNSt3__19allocatorINS_4pairIKiiEEEC2B8ue170006Ev, symObjAddr: 0x3DC, symBinAddr: 0x1000030A4, symSize: 0x2C }
  - { offsetInCU: 0x8689, offset: 0x8689, size: 0x8, addend: 0x0, symName: __ZNSt3__116__non_trivial_ifILb1ENS_9allocatorINS_4pairIKiiEEEEEC2B8ue170006Ev, symObjAddr: 0x408, symBinAddr: 0x1000030D0, symSize: 0x14 }
  - { offsetInCU: 0x86B3, offset: 0x86B3, size: 0x8, addend: 0x0, symName: __ZN9c_hashmapIiiNSt3__14hashIiEENS0_8equal_toIiEENS0_9allocatorINS0_4pairIKiiEEEEE4findEi, symObjAddr: 0x41C, symBinAddr: 0x1000030E4, symSize: 0x38 }
  - { offsetInCU: 0x86E7, offset: 0x86E7, size: 0x8, addend: 0x0, symName: __ZNSt3__19allocatorINS_4pairIKiiEEE8allocateB8ue170006Em, symObjAddr: 0x454, symBinAddr: 0x10000311C, symSize: 0x58 }
  - { offsetInCU: 0x871B, offset: 0x871B, size: 0x8, addend: 0x0, symName: __ZNSt3__14pairIKiiEC1B8ue170006IJiEJiEEENS_21piecewise_construct_tENS_5tupleIJDpT_EEENS5_IJDpT0_EEE, symObjAddr: 0x504, symBinAddr: 0x1000031CC, symSize: 0x4C }
  - { offsetInCU: 0x8788, offset: 0x8788, size: 0x8, addend: 0x0, symName: __ZN9c_hashmapIiiNSt3__14hashIiEENS0_8equal_toIiEENS0_9allocatorINS0_4pairIKiiEEEEE8ListNodeC1IJEEEPS8_, symObjAddr: 0x550, symBinAddr: 0x100003218, symSize: 0x34 }
  - { offsetInCU: 0x87C5, offset: 0x87C5, size: 0x8, addend: 0x0, symName: __ZNKSt3__14hashIiEclB8ue170006Ei, symObjAddr: 0x584, symBinAddr: 0x10000324C, symSize: 0x18 }
  - { offsetInCU: 0x87FA, offset: 0x87FA, size: 0x8, addend: 0x0, symName: __ZN9c_hashmapIiiNSt3__14hashIiEENS0_8equal_toIiEENS0_9allocatorINS0_4pairIKiiEEEEE10insertNodeEPPNSA_8ListNodeESC_, symObjAddr: 0x59C, symBinAddr: 0x100003264, symSize: 0x98 }
  - { offsetInCU: 0x885A, offset: 0x885A, size: 0x8, addend: 0x0, symName: __ZN9c_hashmapIiiNSt3__14hashIiEENS0_8equal_toIiEENS0_9allocatorINS0_4pairIKiiEEEEE8find_keyEi, symObjAddr: 0x634, symBinAddr: 0x1000032FC, symSize: 0xBC }
  - { offsetInCU: 0x889D, offset: 0x889D, size: 0x8, addend: 0x0, symName: __ZNKSt3__18equal_toIiEclB8ue170006ERKiS3_, symObjAddr: 0x6F0, symBinAddr: 0x1000033B8, symSize: 0x34 }
  - { offsetInCU: 0x88F0, offset: 0x88F0, size: 0x8, addend: 0x0, symName: __ZNSt3__116allocator_traitsINS_9allocatorINS_4pairIKiiEEEEE8max_sizeB8ue170006IS5_vvEEmRKS5_, symObjAddr: 0x724, symBinAddr: 0x1000033EC, symSize: 0x28 }
  - { offsetInCU: 0x891C, offset: 0x891C, size: 0x8, addend: 0x0, symName: __ZNSt3__114numeric_limitsImE3maxB8ue170006Ev, symObjAddr: 0x7E0, symBinAddr: 0x1000034A8, symSize: 0x14 }
  - { offsetInCU: 0x8930, offset: 0x8930, size: 0x8, addend: 0x0, symName: __ZNSt3__123__libcpp_numeric_limitsImLb1EE3maxB8ue170006Ev, symObjAddr: 0x7F4, symBinAddr: 0x1000034BC, symSize: 0x8 }
  - { offsetInCU: 0x8944, offset: 0x8944, size: 0x8, addend: 0x0, symName: __ZNSt3__15tupleIJiEEC1B8ue170006INS_4_AndELi0EEERKi, symObjAddr: 0x86C, symBinAddr: 0x100003534, symSize: 0x34 }
  - { offsetInCU: 0x898C, offset: 0x898C, size: 0x8, addend: 0x0, symName: __ZNSt3__15tupleIJiEEC2B8ue170006INS_4_AndELi0EEERKi, symObjAddr: 0x8A0, symBinAddr: 0x100003568, symSize: 0x34 }
  - { offsetInCU: 0x89D4, offset: 0x89D4, size: 0x8, addend: 0x0, symName: __ZNSt3__112__tuple_implINS_15__tuple_indicesIJLm0EEEEJiEEC1B8ue170006IJLm0EEJiEJEJEJRKiEEENS1_IJXspT_EEEENS_13__tuple_typesIJDpT0_EEENS1_IJXspT1_EEEENS8_IJDpT2_EEEDpOT3_, symObjAddr: 0x8D4, symBinAddr: 0x10000359C, symSize: 0x34 }
  - { offsetInCU: 0x8A69, offset: 0x8A69, size: 0x8, addend: 0x0, symName: __ZNSt3__112__tuple_implINS_15__tuple_indicesIJLm0EEEEJiEEC2B8ue170006IJLm0EEJiEJEJEJRKiEEENS1_IJXspT_EEEENS_13__tuple_typesIJDpT0_EEENS1_IJXspT1_EEEENS8_IJDpT2_EEEDpOT3_, symObjAddr: 0x908, symBinAddr: 0x1000035D0, symSize: 0x34 }
  - { offsetInCU: 0x8AFE, offset: 0x8AFE, size: 0x8, addend: 0x0, symName: __ZNSt3__112__tuple_leafILm0EiLb0EEC2B8ue170006IRKivEEOT_, symObjAddr: 0x93C, symBinAddr: 0x100003604, symSize: 0x24 }
  - { offsetInCU: 0x8B41, offset: 0x8B41, size: 0x8, addend: 0x0, symName: __ZNSt3__15tupleIJiEEC1B8ue170006IJiELi0EEEDpOT_, symObjAddr: 0x960, symBinAddr: 0x100003628, symSize: 0x34 }
  - { offsetInCU: 0x8B8B, offset: 0x8B8B, size: 0x8, addend: 0x0, symName: __ZNSt3__15tupleIJiEEC2B8ue170006IJiELi0EEEDpOT_, symObjAddr: 0x994, symBinAddr: 0x10000365C, symSize: 0x34 }
  - { offsetInCU: 0x8BD5, offset: 0x8BD5, size: 0x8, addend: 0x0, symName: __ZNSt3__112__tuple_implINS_15__tuple_indicesIJLm0EEEEJiEEC1B8ue170006IJLm0EEJiEJEJEJiEEENS1_IJXspT_EEEENS_13__tuple_typesIJDpT0_EEENS1_IJXspT1_EEEENS6_IJDpT2_EEEDpOT3_, symObjAddr: 0x9C8, symBinAddr: 0x100003690, symSize: 0x34 }
  - { offsetInCU: 0x8C6A, offset: 0x8C6A, size: 0x8, addend: 0x0, symName: __ZNSt3__112__tuple_implINS_15__tuple_indicesIJLm0EEEEJiEEC2B8ue170006IJLm0EEJiEJEJEJiEEENS1_IJXspT_EEEENS_13__tuple_typesIJDpT0_EEENS1_IJXspT1_EEEENS6_IJDpT2_EEEDpOT3_, symObjAddr: 0x9FC, symBinAddr: 0x1000036C4, symSize: 0x34 }
  - { offsetInCU: 0x8CFF, offset: 0x8CFF, size: 0x8, addend: 0x0, symName: __ZNSt3__112__tuple_leafILm0EiLb0EEC2B8ue170006IivEEOT_, symObjAddr: 0xA30, symBinAddr: 0x1000036F8, symSize: 0x24 }
  - { offsetInCU: 0x8D42, offset: 0x8D42, size: 0x8, addend: 0x0, symName: __ZNSt3__14pairIKiiEC1B8ue170006IJiEJiEJLm0EEJLm0EEEENS_21piecewise_construct_tERNS_5tupleIJDpT_EEERNS5_IJDpT0_EEENS_15__tuple_indicesIJXspT1_EEEENSE_IJXspT2_EEEE, symObjAddr: 0xA54, symBinAddr: 0x10000371C, symSize: 0x3C }
  - { offsetInCU: 0x8DDF, offset: 0x8DDF, size: 0x8, addend: 0x0, symName: __ZNSt3__14pairIKiiEC2B8ue170006IJiEJiEJLm0EEJLm0EEEENS_21piecewise_construct_tERNS_5tupleIJDpT_EEERNS5_IJDpT0_EEENS_15__tuple_indicesIJXspT1_EEEENSE_IJXspT2_EEEE, symObjAddr: 0xA9C, symBinAddr: 0x100003764, symSize: 0x58 }
  - { offsetInCU: 0x8E7C, offset: 0x8E7C, size: 0x8, addend: 0x0, symName: __ZNSt3__112__tuple_leafILm0EiLb0EE3getB8ue170006Ev, symObjAddr: 0xB18, symBinAddr: 0x1000037E0, symSize: 0x14 }
  - { offsetInCU: 0x8EA2, offset: 0x8EA2, size: 0x8, addend: 0x0, symName: __ZN9c_hashmapIiiNSt3__14hashIiEENS0_8equal_toIiEENS0_9allocatorINS0_4pairIKiiEEEEE8ListNodeC2IJEEEPS8_, symObjAddr: 0xB2C, symBinAddr: 0x1000037F4, symSize: 0x24 }
  - { offsetInCU: 0x8EDF, offset: 0x8EDF, size: 0x8, addend: 0x0, symName: __ZN9c_hashmapIiiNSt3__14hashIiEENS0_8equal_toIiEENS0_9allocatorINS0_4pairIKiiEEEEE7emplaceIJRiEEEviDpOT_, symObjAddr: 0xB50, symBinAddr: 0x100003818, symSize: 0x11C }
  - { offsetInCU: 0x8F59, offset: 0x8F59, size: 0x8, addend: 0x0, symName: __ZNSt3__15tupleIJiEEC1B8ue170006IJRiELi0EEEDpOT_, symObjAddr: 0xC98, symBinAddr: 0x100003960, symSize: 0x34 }
  - { offsetInCU: 0x8FA3, offset: 0x8FA3, size: 0x8, addend: 0x0, symName: __ZNSt3__15tupleIJiEEC2B8ue170006IJRiELi0EEEDpOT_, symObjAddr: 0xCCC, symBinAddr: 0x100003994, symSize: 0x34 }
  - { offsetInCU: 0x8FED, offset: 0x8FED, size: 0x8, addend: 0x0, symName: __ZNSt3__112__tuple_implINS_15__tuple_indicesIJLm0EEEEJiEEC1B8ue170006IJLm0EEJiEJEJEJRiEEENS1_IJXspT_EEEENS_13__tuple_typesIJDpT0_EEENS1_IJXspT1_EEEENS7_IJDpT2_EEEDpOT3_, symObjAddr: 0xD00, symBinAddr: 0x1000039C8, symSize: 0x34 }
  - { offsetInCU: 0x9082, offset: 0x9082, size: 0x8, addend: 0x0, symName: __ZNSt3__112__tuple_implINS_15__tuple_indicesIJLm0EEEEJiEEC2B8ue170006IJLm0EEJiEJEJEJRiEEENS1_IJXspT_EEEENS_13__tuple_typesIJDpT0_EEENS1_IJXspT1_EEEENS7_IJDpT2_EEEDpOT3_, symObjAddr: 0xD34, symBinAddr: 0x1000039FC, symSize: 0x34 }
  - { offsetInCU: 0x9117, offset: 0x9117, size: 0x8, addend: 0x0, symName: __ZNSt3__112__tuple_leafILm0EiLb0EEC2B8ue170006IRivEEOT_, symObjAddr: 0xD68, symBinAddr: 0x100003A30, symSize: 0x24 }
  - { offsetInCU: 0x915A, offset: 0x915A, size: 0x8, addend: 0x0, symName: __ZN9c_hashmapIiiNSt3__14hashIiEENS0_8equal_toIiEENS0_9allocatorINS0_4pairIKiiEEEEE7emplaceIJEEEviDpOT_, symObjAddr: 0xD8C, symBinAddr: 0x100003A54, symSize: 0x104 }
  - { offsetInCU: 0x91CA, offset: 0x91CA, size: 0x8, addend: 0x0, symName: __ZNSt3__14pairIKiiEC1B8ue170006IJiEJEEENS_21piecewise_construct_tENS_5tupleIJDpT_EEENS5_IJDpT0_EEE, symObjAddr: 0xE94, symBinAddr: 0x100003B5C, symSize: 0x44 }
  - { offsetInCU: 0x9231, offset: 0x9231, size: 0x8, addend: 0x0, symName: __ZNSt3__14pairIKiiEC1B8ue170006IJiEJEJLm0EEJEEENS_21piecewise_construct_tERNS_5tupleIJDpT_EEERNS5_IJDpT0_EEENS_15__tuple_indicesIJXspT1_EEEENSE_IJXspT2_EEEE, symObjAddr: 0xED8, symBinAddr: 0x100003BA0, symSize: 0x3C }
  - { offsetInCU: 0x92C1, offset: 0x92C1, size: 0x8, addend: 0x0, symName: __ZNSt3__14pairIKiiEC2B8ue170006IJiEJEJLm0EEJEEENS_21piecewise_construct_tERNS_5tupleIJDpT_EEERNS5_IJDpT0_EEENS_15__tuple_indicesIJXspT1_EEEENSE_IJXspT2_EEEE, symObjAddr: 0xF14, symBinAddr: 0x100003BDC, symSize: 0x48 }
  - { offsetInCU: 0x9351, offset: 0x9351, size: 0x8, addend: 0x0, symName: __ZNKSt3__19basic_iosIcNS_11char_traitsIcEEE5widenB8ue170006Ec, symObjAddr: 0xF5C, symBinAddr: 0x100003C24, symSize: 0x84 }
  - { offsetInCU: 0x93BF, offset: 0x93BF, size: 0x8, addend: 0x0, symName: __ZNKSt3__15ctypeIcE5widenB8ue170006Ec, symObjAddr: 0x100C, symBinAddr: 0x100003CD4, symSize: 0x38 }
...
